target datalayout = "e-m:e-p270:32:32-p271:32:32-p272:64:64-i64:64-i128:128-f80:128-n8:16:32:64-S128"
target triple = "x86_64-pc-linux-gnu"

%struct.set_raw_client_data = type { ptr, i32, ptr, i32, i32 }

; Function Attrs: nounwind sspstrong uwtable
define void @FLAC__metadata_object_delete(ptr noundef %0) #0 {
  %2 = alloca ptr, align 8
  store ptr %0, ptr %2, align 8, !tbaa !7
  %3 = load ptr, ptr %2, align 8, !tbaa !7
  call void @FLAC__metadata_object_delete_data(ptr noundef %3)
  %4 = load ptr, ptr %2, align 8, !tbaa !7
  call void @free(ptr noundef %4) #12
  ret void
}

; Function Attrs: nounwind sspstrong uwtable
define ptr @FLAC__metadata_object_set_raw(ptr noundef %0, i32 noundef %1) #0 {
  %3 = alloca ptr, align 8
  %4 = alloca ptr, align 8
  %5 = alloca i32, align 4
  %6 = alloca %struct.set_raw_client_data, align 8
  %7 = alloca ptr, align 8
  %8 = alloca i32, align 4
  store ptr %0, ptr %4, align 8, !tbaa !14
  store i32 %1, ptr %5, align 4, !tbaa !3
  call void @llvm.lifetime.start.p0(i64 32, ptr %6) #12
  call void @llvm.lifetime.start.p0(i64 8, ptr %7) #12
  %9 = load ptr, ptr %4, align 8, !tbaa !14
  %10 = getelementptr inbounds nuw %struct.set_raw_client_data, ptr %6, i32 0, i32 2
  store ptr %9, ptr %10, align 8, !tbaa !110
  %11 = load i32, ptr %5, align 4, !tbaa !3
  %12 = getelementptr inbounds nuw %struct.set_raw_client_data, ptr %6, i32 0, i32 3
  store i32 %11, ptr %12, align 8, !tbaa !112
  %13 = getelementptr inbounds nuw %struct.set_raw_client_data, ptr %6, i32 0, i32 1
  store i32 0, ptr %13, align 8, !tbaa !113
  %14 = getelementptr inbounds nuw %struct.set_raw_client_data, ptr %6, i32 0, i32 0
  store ptr null, ptr %14, align 8, !tbaa !114
  %15 = getelementptr inbounds nuw %struct.set_raw_client_data, ptr %6, i32 0, i32 4
  store i32 -4, ptr %15, align 4, !tbaa !115
  %16 = call ptr @FLAC__stream_decoder_new()
  store ptr %16, ptr %7, align 8, !tbaa !27
  %17 = load ptr, ptr %7, align 8, !tbaa !27
  %18 = icmp eq ptr null, %17
  br i1 %18, label %19, label %20

19:                                               ; preds = %2
  store ptr null, ptr %3, align 8
  store i32 1, ptr %8, align 4
  br label %65

20:                                               ; preds = %2
  %21 = load ptr, ptr %7, align 8, !tbaa !27
  %22 = call i32 @FLAC__stream_decoder_set_md5_checking(ptr noundef %21, i32 noundef 0)
  %23 = load ptr, ptr %7, align 8, !tbaa !27
  %24 = call i32 @FLAC__stream_decoder_set_metadata_respond_all(ptr noundef %23)
  %25 = load ptr, ptr %7, align 8, !tbaa !27
  %26 = call i32 @FLAC__stream_decoder_init_stream(ptr noundef %25, ptr noundef @read_callback_, ptr noundef null, ptr noundef null, ptr noundef null, ptr noundef null, ptr noundef @write_callback_, ptr noundef @metadata_callback_, ptr noundef @error_callback_, ptr noundef %6)
  %27 = icmp ne i32 %26, 0
  br i1 %27, label %32, label %28

28:                                               ; preds = %20
  %29 = getelementptr inbounds nuw %struct.set_raw_client_data, ptr %6, i32 0, i32 1
  %30 = load i32, ptr %29, align 8, !tbaa !113
  %31 = icmp ne i32 %30, 0
  br i1 %31, label %32, label %36

32:                                               ; preds = %28, %20
  %33 = load ptr, ptr %7, align 8, !tbaa !27
  %34 = call i32 @FLAC__stream_decoder_finish(ptr noundef %33)
  %35 = load ptr, ptr %7, align 8, !tbaa !27
  call void @FLAC__stream_decoder_delete(ptr noundef %35)
  store ptr null, ptr %3, align 8
  store i32 1, ptr %8, align 4
  br label %65

36:                                               ; preds = %28
  %37 = load ptr, ptr %7, align 8, !tbaa !27
  %38 = call i32 @FLAC__stream_decoder_process_until_end_of_metadata(ptr noundef %37)
  %39 = icmp ne i32 %38, 0
  br i1 %39, label %44, label %40

40:                                               ; preds = %36
  %41 = load ptr, ptr %7, align 8, !tbaa !27
  %42 = call i32 @FLAC__stream_decoder_get_state(ptr noundef %41)
  %43 = icmp ne i32 %42, 4
  br i1 %43, label %48, label %44

44:                                               ; preds = %40, %36
  %45 = getelementptr inbounds nuw %struct.set_raw_client_data, ptr %6, i32 0, i32 1
  %46 = load i32, ptr %45, align 8, !tbaa !113
  %47 = icmp ne i32 %46, 0
  br i1 %47, label %48, label %59

48:                                               ; preds = %44, %40
  %49 = load ptr, ptr %7, align 8, !tbaa !27
  %50 = call i32 @FLAC__stream_decoder_finish(ptr noundef %49)
  %51 = load ptr, ptr %7, align 8, !tbaa !27
  call void @FLAC__stream_decoder_delete(ptr noundef %51)
  %52 = getelementptr inbounds nuw %struct.set_raw_client_data, ptr %6, i32 0, i32 0
  %53 = load ptr, ptr %52, align 8, !tbaa !114
  %54 = icmp ne ptr null, %53
  br i1 %54, label %55, label %58

55:                                               ; preds = %48
  %56 = getelementptr inbounds nuw %struct.set_raw_client_data, ptr %6, i32 0, i32 0
  %57 = load ptr, ptr %56, align 8, !tbaa !114
  call void @FLAC__metadata_object_delete(ptr noundef %57)
  br label %58

58:                                               ; preds = %55, %48
  store ptr null, ptr %3, align 8
  store i32 1, ptr %8, align 4
  br label %65

59:                                               ; preds = %44
  %60 = load ptr, ptr %7, align 8, !tbaa !27
  %61 = call i32 @FLAC__stream_decoder_finish(ptr noundef %60)
  %62 = load ptr, ptr %7, align 8, !tbaa !27
  call void @FLAC__stream_decoder_delete(ptr noundef %62)
  %63 = getelementptr inbounds nuw %struct.set_raw_client_data, ptr %6, i32 0, i32 0
  %64 = load ptr, ptr %63, align 8, !tbaa !114
  store ptr %64, ptr %3, align 8
  store i32 1, ptr %8, align 4
  br label %65

65:                                               ; preds = %59, %58, %32, %19
  call void @llvm.lifetime.end.p0(i64 8, ptr %7) #12
  call void @llvm.lifetime.end.p0(i64 32, ptr %6) #12
  %66 = load ptr, ptr %3, align 8
  ret ptr %66
}