; Function Attrs: nounwind sspstrong uwtable
define ptr @FLAC__metadata_object_set_raw(ptr noundef %0, i32 noundef %1) local_unnamed_addr #5 {
  %3 = alloca %struct.set_raw_client_data, align 8
  call void @llvm.lifetime.start.p0(i64 32, ptr nonnull %3) #31
  %4 = getelementptr inbounds nuw i8, ptr %3, i64 16
  store ptr %0, ptr %4, align 8, !tbaa !99
  %5 = getelementptr inbounds nuw i8, ptr %3, i64 24
  store i32 %1, ptr %5, align 8, !tbaa !102
  %6 = getelementptr inbounds nuw i8, ptr %3, i64 8
  store i32 0, ptr %6, align 8, !tbaa !103
  store ptr null, ptr %3, align 8, !tbaa !104
  %7 = getelementptr inbounds nuw i8, ptr %3, i64 28
  store i32 -4, ptr %7, align 4, !tbaa !105
  %8 = tail call ptr @FLAC__stream_decoder_new() #31
  %9 = icmp eq ptr %8, null
  br i1 %9, label %34, label %10

10:                                               ; preds = %2
  %11 = tail call i32 @FLAC__stream_decoder_set_md5_checking(ptr noundef nonnull %8, i32 noundef 0) #31
  %12 = tail call i32 @FLAC__stream_decoder_set_metadata_respond_all(ptr noundef nonnull %8) #31
  %13 = call i32 @FLAC__stream_decoder_init_stream(ptr noundef nonnull %8, ptr noundef nonnull @read_callback_, ptr noundef null, ptr noundef null, ptr noundef null, ptr noundef null, ptr noundef nonnull @write_callback_, ptr noundef nonnull @metadata_callback_, ptr noundef nonnull @error_callback_, ptr noundef nonnull %3) #31
  %14 = icmp ne i32 %13, 0
  %15 = load i32, ptr %6, align 8
  %16 = icmp ne i32 %15, 0
  %or.cond = select i1 %14, i1 true, i1 %16
  br i1 %or.cond, label %17, label %19

17:                                               ; preds = %10
  %18 = call i32 @FLAC__stream_decoder_finish(ptr noundef nonnull %8) #31
  call void @FLAC__stream_decoder_delete(ptr noundef nonnull %8) #31
  br label %34

19:                                               ; preds = %10
  %20 = call i32 @FLAC__stream_decoder_process_until_end_of_metadata(ptr noundef nonnull %8) #31
  %.not = icmp eq i32 %20, 0
  br i1 %.not, label %21, label %26

21:                                               ; preds = %19
  %22 = call i32 @FLAC__stream_decoder_get_state(ptr noundef nonnull %8) #31
  %23 = icmp ne i32 %22, 4
  %24 = load i32, ptr %6, align 8
  %25 = icmp ne i32 %24, 0
  %or.cond5 = select i1 %23, i1 true, i1 %25
  br i1 %or.cond5, label %27, label %31

26:                                               ; preds = %19
  %.old3 = load i32, ptr %6, align 8, !tbaa !103
  %.old4.not = icmp eq i32 %.old3, 0
  br i1 %.old4.not, label %31, label %27

27:                                               ; preds = %26, %21
  %28 = call i32 @FLAC__stream_decoder_finish(ptr noundef nonnull %8) #31
  call void @FLAC__stream_decoder_delete(ptr noundef nonnull %8) #31
  %29 = load ptr, ptr %3, align 8, !tbaa !104
  %.not21 = icmp eq ptr %29, null
  br i1 %.not21, label %34, label %30

30:                                               ; preds = %27
  call void @FLAC__metadata_object_delete_data(ptr noundef nonnull %29)
  call void @free(ptr noundef nonnull %29) #31
  br label %34

31:                                               ; preds = %21, %26
  %32 = call i32 @FLAC__stream_decoder_finish(ptr noundef nonnull %8) #31
  call void @FLAC__stream_decoder_delete(ptr noundef nonnull %8) #31
  %33 = load ptr, ptr %3, align 8, !tbaa !104
  br label %34

34:                                               ; preds = %27, %30, %2, %31, %17
  %.0 = phi ptr [ null, %17 ], [ %33, %31 ], [ null, %2 ], [ null, %30 ], [ null, %27 ]
  call void @llvm.lifetime.end.p0(i64 32, ptr nonnull %3) #31
  ret ptr %.0
}